target datalayout = "e-m:e-p270:32:32-p271:32:32-p272:64:64-i64:64-i128:128-f80:128-n8:16:32:64-S128"
target triple = "x86_64-unknown-linux-gnu"

%"class.EA::EAMain::PrintManager" = type { [3 x ptr] }

@_ZN2EA6EAMainL14gPrintfChannelE = internal global { ptr } { ptr getelementptr inbounds ({ [7 x ptr] }, ptr @_ZTVN2EA6EAMain13PrintfChannelE, i32 0, i32 0, i32 2) }, align 8
@.str = private unnamed_addr constant [26 x i8] c"EAMAIN_NETWORK_CHANNEL_IP\00", align 1

; Function Attrs: mustprogress uwtable
define dso_local void @_ZN2EA6EAMain12PrintManager3AddENS0_13EAMainChannelEPNS0_8IChannelE(ptr noundef nonnull align 8 dereferenceable(24) %this, i32 noundef %channel, ptr noundef %instance) #4 align 2 {
entry:
  %this.addr = alloca ptr, align 8
  %channel.addr = alloca i32, align 4
  %instance.addr = alloca ptr, align 8
  store ptr %this, ptr %this.addr, align 8
  store i32 %channel, ptr %channel.addr, align 4
  store ptr %instance, ptr %instance.addr, align 8
  %this1 = load ptr, ptr %this.addr, align 8
  %0 = load ptr, ptr %instance.addr, align 8
  %cmp = icmp ne ptr %0, null
  br i1 %cmp, label %land.lhs.true, label %if.end

land.lhs.true:                                    ; preds = %entry
  %m_Channels = getelementptr inbounds %"class.EA::EAMain::PrintManager", ptr %this1, i32 0, i32 0
  %1 = load i32, ptr %channel.addr, align 4
  %idxprom = zext i32 %1 to i64
  %arrayidx = getelementptr inbounds [3 x ptr], ptr %m_Channels, i64 0, i64 %idxprom
  %2 = load ptr, ptr %arrayidx, align 8
  %cmp2 = icmp eq ptr %2, null
  br i1 %cmp2, label %if.then, label %if.end

if.then:                                          ; preds = %land.lhs.true
  %3 = load ptr, ptr %instance.addr, align 8
  %vtable = load ptr, ptr %3, align 8
  %vfn = getelementptr inbounds ptr, ptr %vtable, i64 2
  %4 = load ptr, ptr %vfn, align 8
  call void %4(ptr noundef nonnull align 8 dereferenceable(8) %3)
  %5 = load ptr, ptr %instance.addr, align 8
  %m_Channels3 = getelementptr inbounds %"class.EA::EAMain::PrintManager", ptr %this1, i32 0, i32 0
  %6 = load i32, ptr %channel.addr, align 4
  %idxprom4 = zext i32 %6 to i64
  %arrayidx5 = getelementptr inbounds [3 x ptr], ptr %m_Channels3, i64 0, i64 %idxprom4
  store ptr %5, ptr %arrayidx5, align 8
  br label %if.end

if.end:                                           ; preds = %if.then, %land.lhs.true, %entry
  ret void
}

; Function Attrs: mustprogress uwtable
define linkonce_odr dso_local noundef i32 @_ZN2EA4StdC6AtoI32EPKc(ptr noundef %pString) #4 comdat {
entry:
  %pString.addr = alloca ptr, align 8
  store ptr %pString, ptr %pString.addr, align 8
  %0 = load ptr, ptr %pString.addr, align 8
  %call = call noundef i32 @_ZN2EA4StdC8StrtoI32EPKcPPci(ptr noundef %0, ptr noundef null, i32 noundef 10)
  ret i32 %call
}

; Function Attrs: mustprogress uwtable
define dso_local void @_ZN2EA6EAMain12PrintManager7StartupEPKc(ptr noundef nonnull align 8 dereferenceable(24) %this, ptr noundef %printServerAddress) #4 align 2 {
entry:
  %this.addr = alloca ptr, align 8
  %printServerAddress.addr = alloca ptr, align 8
  %server = alloca ptr, align 8
  %portStr = alloca ptr, align 8
  %port = alloca i32, align 4
  %serverBuff = alloca [64 x i8], align 16
  %networkChannel = alloca ptr, align 8
  store ptr %this, ptr %this.addr, align 8
  store ptr %printServerAddress, ptr %printServerAddress.addr, align 8
  %this1 = load ptr, ptr %this.addr, align 8
  call void @_ZN2EA6EAMain17SetReportFunctionEPFvPKcE(ptr noundef @_ZN2EA6EAMain8Messages5PrintEPKc)
  %0 = load ptr, ptr %printServerAddress.addr, align 8
  %tobool = icmp ne ptr %0, null
  br i1 %tobool, label %if.end, label %if.then

if.then:                                          ; preds = %entry
  store ptr @.str, ptr %printServerAddress.addr, align 8
  br label %if.end

if.end:                                           ; preds = %if.then, %entry
  %1 = load ptr, ptr %printServerAddress.addr, align 8
  store ptr %1, ptr %server, align 8
  %2 = load ptr, ptr %printServerAddress.addr, align 8
  %call = call noundef ptr @strchr(ptr noundef %2, i32 noundef 58) #8
  store ptr %call, ptr %portStr, align 8
  store i32 8080, ptr %port, align 4
  call void @llvm.memset.p0.i64(ptr align 16 %serverBuff, i8 0, i64 64, i1 false)
  %3 = load ptr, ptr %portStr, align 8
  %cmp = icmp ne ptr %3, null
  br i1 %cmp, label %if.then2, label %if.end5

if.then2:                                         ; preds = %if.end
  %4 = load ptr, ptr %portStr, align 8
  %add.ptr = getelementptr inbounds i8, ptr %4, i64 1
  %call3 = call noundef i32 @_ZN2EA4StdC6AtoI32EPKc(ptr noundef %add.ptr)
  store i32 %call3, ptr %port, align 4
  %arraydecay = getelementptr inbounds [64 x i8], ptr %serverBuff, i64 0, i64 0
  %5 = load ptr, ptr %server, align 8
  %6 = load ptr, ptr %portStr, align 8
  %7 = load ptr, ptr %server, align 8
  %sub.ptr.lhs.cast = ptrtoint ptr %6 to i64
  %sub.ptr.rhs.cast = ptrtoint ptr %7 to i64
  %sub.ptr.sub = sub i64 %sub.ptr.lhs.cast, %sub.ptr.rhs.cast
  %call4 = call noundef ptr @_ZN2EA4StdC7StrncpyEPcPKcm(ptr noundef %arraydecay, ptr noundef %5, i64 noundef %sub.ptr.sub)
  store ptr %call4, ptr %server, align 8
  br label %if.end5

if.end5:                                          ; preds = %if.then2, %if.end
  %8 = load ptr, ptr %server, align 8
  %9 = load i32, ptr %port, align 4
  %call6 = call noundef ptr @_ZN2EA6EAMain8Internal20CreateNetworkChannelEPKci(ptr noundef %8, i32 noundef %9)
  store ptr %call6, ptr %networkChannel, align 8
  %10 = load ptr, ptr %networkChannel, align 8
  %tobool7 = icmp ne ptr %10, null
  br i1 %tobool7, label %if.then8, label %if.else

if.then8:                                         ; preds = %if.end5
  %11 = load ptr, ptr %networkChannel, align 8
  call void @_ZN2EA6EAMain12PrintManager3AddENS0_13EAMainChannelEPNS0_8IChannelE(ptr noundef nonnull align 8 dereferenceable(24) %this1, i32 noundef 1, ptr noundef %11)
  br label %if.end9

if.else:                                          ; preds = %if.end5
  call void @_ZN2EA6EAMain12PrintManager3AddENS0_13EAMainChannelEPNS0_8IChannelE(ptr noundef nonnull align 8 dereferenceable(24) %this1, i32 noundef 0, ptr noundef @_ZN2EA6EAMainL14gPrintfChannelE)
  br label %if.end9

if.end9:                                          ; preds = %if.else, %if.then8
  ret void
}