; Function Attrs: mustprogress uwtable
define dso_local void @_ZN2EA6EAMain12PrintManager7StartupEPKc(ptr nocapture noundef nonnull align 8 dereferenceable(24) %this, ptr noundef %printServerAddress) local_unnamed_addr #3 align 2 {
entry:
  %serverBuff = alloca [64 x i8], align 16
  tail call void @_ZN2EA6EAMain17SetReportFunctionEPFvPKcE(ptr noundef nonnull @_ZN2EA6EAMain8Messages5PrintEPKc)
  %tobool.not = icmp eq ptr %printServerAddress, null
  %spec.store.select = select i1 %tobool.not, ptr @.str, ptr %printServerAddress
  %call = tail call noundef ptr @strchr(ptr noundef nonnull dereferenceable(1) %spec.store.select, i32 noundef 58) #6
  call void @llvm.memset.p0.i64(ptr noundef nonnull align 16 dereferenceable(64) %serverBuff, i8 0, i64 64, i1 false)
  %cmp.not = icmp eq ptr %call, null
  br i1 %cmp.not, label %if.end5, label %if.then2

if.then2:                                         ; preds = %entry
  %add.ptr = getelementptr inbounds i8, ptr %call, i64 1
  %call.i = tail call noundef i32 @_ZN2EA4StdC8StrtoI32EPKcPPci(ptr noundef nonnull %add.ptr, ptr noundef null, i32 noundef 10)
  %sub.ptr.lhs.cast = ptrtoint ptr %call to i64
  %sub.ptr.rhs.cast = ptrtoint ptr %spec.store.select to i64
  %sub.ptr.sub = sub i64 %sub.ptr.lhs.cast, %sub.ptr.rhs.cast
  %call4 = call noundef ptr @_ZN2EA4StdC7StrncpyEPcPKcm(ptr noundef nonnull %serverBuff, ptr noundef nonnull %spec.store.select, i64 noundef %sub.ptr.sub)
  br label %if.end5

if.end5:                                          ; preds = %if.then2, %entry
  %port.0 = phi i32 [ %call.i, %if.then2 ], [ 8080, %entry ]
  %server.0 = phi ptr [ %call4, %if.then2 ], [ %spec.store.select, %entry ]
  %call6 = call noundef ptr @_ZN2EA6EAMain8Internal20CreateNetworkChannelEPKci(ptr noundef %server.0, i32 noundef %port.0)
  %tobool7.not = icmp eq ptr %call6, null
  br i1 %tobool7.not, label %if.else, label %land.lhs.true.i

land.lhs.true.i:                                  ; preds = %if.end5
  %arrayidx.i = getelementptr inbounds i8, ptr %this, i64 8
  %0 = load ptr, ptr %arrayidx.i, align 8
  %cmp2.i = icmp eq ptr %0, null
  br i1 %cmp2.i, label %if.then.i, label %if.end9

if.then.i:                                        ; preds = %land.lhs.true.i
  %vtable.i = load ptr, ptr %call6, align 8
  %vfn.i = getelementptr inbounds i8, ptr %vtable.i, i64 16
  %1 = load ptr, ptr %vfn.i, align 8
  call void %1(ptr noundef nonnull align 8 dereferenceable(8) %call6)
  store ptr %call6, ptr %arrayidx.i, align 8
  br label %if.end9

if.else:                                          ; preds = %if.end5
  %2 = load ptr, ptr %this, align 8
  %cmp2.i9 = icmp eq ptr %2, null
  br i1 %cmp2.i9, label %if.then.i10, label %if.end9

if.then.i10:                                      ; preds = %if.else
  %vtable.i11 = load ptr, ptr @_ZN2EA6EAMainL14gPrintfChannelE, align 8
  %vfn.i12 = getelementptr inbounds i8, ptr %vtable.i11, i64 16
  %3 = load ptr, ptr %vfn.i12, align 8
  call void %3(ptr noundef nonnull align 8 dereferenceable(8) @_ZN2EA6EAMainL14gPrintfChannelE)
  store ptr @_ZN2EA6EAMainL14gPrintfChannelE, ptr %this, align 8
  br label %if.end9

if.end9:                                          ; preds = %if.then.i10, %if.else, %if.then.i, %land.lhs.true.i
  ret void
}